((lp0
S'<UNKNOW>'
p1
aVNN
p2
aVIN
p3
aVDT
p4
aVNNP
p5
aVJJ
p6
aVNNS
p7
aV,
p8
aVCD
p9
aVRB
p10
aVVB
p11
aVVBD
p12
aVTO
p13
aVCC
p14
aVVBZ
p15
aVVBN
p16
aVPRP
p17
aVVBG
p18
aVVBP
p19
aVMD
p20
aVPRP$
p21
aVPOS
p22
aV$
p23
aV``
p24
aVWDT
p25
aVJJR
p26
aVRP
p27
aV''
p28
aV:
p29
aVWRB
p30
aVNNPS
p31
aVWP
p32
aVJJS
p33
aVRBR
p34
aVEX
p35
aV-LRB-
p36
aV-RRB-
p37
aVRBS
p38
aVPDT
p39
aV.
p40
aVFW
p41
aVWP$
p42
aV#
p43
aVUH
p44
a(dp45
g21
I20
sg18
I17
sg12
I11
sg24
I23
sg16
I15
sg8
I7
sg28
I27
sg19
I18
sg25
I24
sg6
I5
sg32
I31
sg15
I14
sg4
I3
sg43
I42
sg27
I26
sg23
I22
sg2
I1
sg41
I40
sg22
I21
sg40
I39
sg13
I12
sg17
I16
sg10
I9
sg36
I35
sg29
I28
sg7
I6
sg5
I4
sg11
I10
sg30
I29
sg14
I13
sg39
I38
sg38
I37
sg34
I33
sg9
I8
sg35
I34
sg3
I2
sg42
I41
sg20
I19
sg31
I30
sg37
I36
sg33
I32
sg26
I25
sg44
I43
sg1
I0
stp46
.